Certificate:
    Data:
        Version: 1 (0x0)
        Serial Number: 1 (0x1)
    Signature Algorithm: ecdsa-with-SHA1
        Issuer: C=NL, ST=Noord-Brabant, L=Eindhoven, O=TU/e, OU=IST, CN=TeamARA Root Certificate
        Validity
            Not Before: Nov 25 12:48:54 2014 GMT
            Not After : Nov 25 12:48:54 2015 GMT
        Subject: C=NL, ST=Noord-Brabant, O=TU/e, OU=IST, CN=TeamARA Card Intermediate Certificate
        Subject Public Key Info:
            Public Key Algorithm: id-ecPublicKey
                Public-Key: (193 bit)
                pub: 
                    04:00:7f:43:93:44:ac:58:0f:d7:9c:62:f0:b6:ab:
                    19:97:12:49:7a:7a:bd:f6:9e:76:b7:00:7d:84:2e:
                    25:6a:cd:7d:56:96:67:2e:0b:89:7f:9b:75:11:ae:
                    fb:93:0f:71:41:65
                ASN1 OID: sect193r1
    Signature Algorithm: ecdsa-with-SHA1
         30:35:02:18:1c:35:a1:b4:64:0d:fe:ab:a1:4a:57:d0:9f:86:
         69:a7:5b:d2:c7:89:05:fb:58:57:02:19:00:8f:8e:e2:38:5e:
         85:51:f4:07:dc:37:5f:9d:af:f4:d4:2f:fb:38:a9:48:a2:6e:
         1a
-----BEGIN CERTIFICATE-----
MIIBsDCCAWcCAQEwCQYHKoZIzj0EATB5MQswCQYDVQQGEwJOTDEWMBQGA1UECAwN
Tm9vcmQtQnJhYmFudDESMBAGA1UEBwwJRWluZGhvdmVuMQ0wCwYDVQQKDARUVS9l
MQwwCgYDVQQLDANJU1QxITAfBgNVBAMMGFRlYW1BUkEgUm9vdCBDZXJ0aWZpY2F0
ZTAeFw0xNDExMjUxMjQ4NTRaFw0xNTExMjUxMjQ4NTRaMHIxCzAJBgNVBAYTAk5M
MRYwFAYDVQQIDA1Ob29yZC1CcmFiYW50MQ0wCwYDVQQKDARUVS9lMQwwCgYDVQQL
DANJU1QxLjAsBgNVBAMMJVRlYW1BUkEgQ2FyZCBJbnRlcm1lZGlhdGUgQ2VydGlm
aWNhdGUwSDAQBgcqhkjOPQIBBgUrgQQAGAM0AAQAf0OTRKxYD9ecYvC2qxmXEkl6
er32nna3AH2ELiVqzX1WlmcuC4l/m3URrvuTD3FBZTAJBgcqhkjOPQQBAzgAMDUC
GBw1obRkDf6roUpX0J+Gaadb0seJBftYVwIZAI+O4jhehVH0B9w3X52v9NQv+zip
SKJuGg==
-----END CERTIFICATE-----
