Certificate:
    Data:
        Version: 1 (0x0)
        Serial Number: 2 (0x2)
        Signature Algorithm: ecdsa-with-SHA1
        Issuer: C=NL, ST=Noord-Brabant, L=Eindhoven, O=TU/e, OU=IST, CN=TeamARA Root Certificate
        Validity
            Not Before: Oct 12 22:18:39 2014 GMT
            Not After : Oct 12 22:18:39 2015 GMT
        Subject: C=NL, ST=Noord-Brabant, O=TU/e, OU=IST, CN=TeamARA Pump Terminal Intermediate Certificate
        Subject Public Key Info:
            Public Key Algorithm: id-ecPublicKey
            EC Public Key:
                pub: 
                    04:e6:28:23:8d:fa:40:ab:dc:d1:77:50:7a:fe:b7:
                    ea:1d:40:35:6f:49:55:ea:e4:a0:8c:8c:b7:3a:a2:
                    c0:c9:23:ed:76:4b:0d:ee:48:44:10:f9:bc:60:f2:
                    59:b2:54:fb:3f:a0:92:14:03:05:07:a9:06:37:1b:
                    45:4a:94:1f:18
                ASN1 OID: secp256k1
    Signature Algorithm: ecdsa-with-SHA1
        30:45:02:21:00:87:93:e8:e9:20:82:01:68:fa:10:a2:3d:40:
        07:1d:8e:e5:6a:d7:52:1c:ba:12:63:61:97:d6:9d:1b:0b:b5:
        b4:02:20:1f:7a:a6:89:bf:c6:c1:36:9e:ef:f1:0a:47:2a:9a:
        32:7c:e0:c5:c8:74:87:97:7e:3c:d6:44:ab:7c:ed:b3:1f
-----BEGIN CERTIFICATE-----
MIIB1zCCAX4CAQIwCQYHKoZIzj0EATB5MQswCQYDVQQGEwJOTDEWMBQGA1UECBMN
Tm9vcmQtQnJhYmFudDESMBAGA1UEBxMJRWluZGhvdmVuMQ0wCwYDVQQKEwRUVS9l
MQwwCgYDVQQLEwNJU1QxITAfBgNVBAMTGFRlYW1BUkEgUm9vdCBDZXJ0aWZpY2F0
ZTAeFw0xNDEwMTIyMjE4MzlaFw0xNTEwMTIyMjE4MzlaMHsxCzAJBgNVBAYTAk5M
MRYwFAYDVQQIEw1Ob29yZC1CcmFiYW50MQ0wCwYDVQQKEwRUVS9lMQwwCgYDVQQL
EwNJU1QxNzA1BgNVBAMTLlRlYW1BUkEgUHVtcCBUZXJtaW5hbCBJbnRlcm1lZGlh
dGUgQ2VydGlmaWNhdGUwVjAQBgcqhkjOPQIBBgUrgQQACgNCAATmKCON+kCr3NF3
UHr+t+odQDVvSVXq5KCMjLc6osDJI+12Sw3uSEQQ+bxg8lmyVPs/oJIUAwUHqQY3
G0VKlB8YMAkGByqGSM49BAEDSAAwRQIhAIeT6OkgggFo+hCiPUAHHY7latdSHLoS
Y2GX1p0bC7W0AiAfeqaJv8bBNp7v8QpHKpoyfODFyHSHl3481kSrfO2zHw==
-----END CERTIFICATE-----
