Certificate:
    Data:
        Version: 1 (0x0)
        Serial Number: 3 (0x3)
        Signature Algorithm: ecdsa-with-SHA1
        Issuer: C=NL, ST=Noord-Brabant, L=Eindhoven, O=TU/e, OU=IST, CN=TeamARA Root Certificate
        Validity
            Not Before: Oct 12 22:18:40 2014 GMT
            Not After : Oct 12 22:18:40 2015 GMT
        Subject: C=NL, ST=Noord-Brabant, O=TU/e, OU=IST, CN=TeamARA Charging Terminal Intermediate Certificate
        Subject Public Key Info:
            Public Key Algorithm: id-ecPublicKey
            EC Public Key:
                pub: 
                    04:ef:ea:cf:55:eb:b9:69:dd:86:97:9a:86:6c:9e:
                    a4:34:96:d4:30:93:5a:e7:19:f5:21:56:a2:5c:1b:
                    7d:af:38:18:44:a1:bd:36:90:d1:56:fc:71:5a:a6:
                    df:e7:2f:59:16:77:f7:c0:46:de:a6:ff:72:48:b8:
                    c0:7e:15:11:bf
                ASN1 OID: secp256k1
    Signature Algorithm: ecdsa-with-SHA1
        30:46:02:21:00:de:50:39:80:a4:07:be:5a:11:0e:18:4d:c4:
        2c:8f:a9:c8:2e:e6:8f:9e:d9:a3:38:6d:0e:6b:d1:d9:63:8a:
        63:02:21:00:86:ff:f0:6f:92:eb:7f:c5:c1:ab:e5:d7:5d:78:
        63:8d:14:e5:91:db:c7:ee:51:e3:1b:0a:9f:02:ce:78:79:de
-----BEGIN CERTIFICATE-----
MIIB3DCCAYICAQMwCQYHKoZIzj0EATB5MQswCQYDVQQGEwJOTDEWMBQGA1UECBMN
Tm9vcmQtQnJhYmFudDESMBAGA1UEBxMJRWluZGhvdmVuMQ0wCwYDVQQKEwRUVS9l
MQwwCgYDVQQLEwNJU1QxITAfBgNVBAMTGFRlYW1BUkEgUm9vdCBDZXJ0aWZpY2F0
ZTAeFw0xNDEwMTIyMjE4NDBaFw0xNTEwMTIyMjE4NDBaMH8xCzAJBgNVBAYTAk5M
MRYwFAYDVQQIEw1Ob29yZC1CcmFiYW50MQ0wCwYDVQQKEwRUVS9lMQwwCgYDVQQL
EwNJU1QxOzA5BgNVBAMTMlRlYW1BUkEgQ2hhcmdpbmcgVGVybWluYWwgSW50ZXJt
ZWRpYXRlIENlcnRpZmljYXRlMFYwEAYHKoZIzj0CAQYFK4EEAAoDQgAE7+rPVeu5
ad2Gl5qGbJ6kNJbUMJNa5xn1IVaiXBt9rzgYRKG9NpDRVvxxWqbf5y9ZFnf3wEbe
pv9ySLjAfhURvzAJBgcqhkjOPQQBA0kAMEYCIQDeUDmApAe+WhEOGE3ELI+pyC7m
j57ZozhtDmvR2WOKYwIhAIb/8G+S63/Fwavl1114Y40U5ZHbx+5R4xsKnwLOeHne
-----END CERTIFICATE-----
