Certificate:
    Data:
        Version: 1 (0x0)
        Serial Number: 1 (0x1)
        Signature Algorithm: ecdsa-with-SHA1
        Issuer: C=NL, ST=Noord-Brabant, L=Eindhoven, O=TU/e, OU=IST, CN=TeamARA Root Certificate
        Validity
            Not Before: Oct 12 22:18:38 2014 GMT
            Not After : Oct 12 22:18:38 2015 GMT
        Subject: C=NL, ST=Noord-Brabant, O=TU/e, OU=IST, CN=TeamARA Card Intermediate Certificate
        Subject Public Key Info:
            Public Key Algorithm: id-ecPublicKey
            EC Public Key:
                pub: 
                    04:4d:cb:a6:cb:70:e5:60:04:4e:92:4f:d2:44:29:
                    9e:89:4e:25:8f:09:7f:cd:96:e2:bc:65:7a:24:cc:
                    09:4f:e6:1e:e5:e9:45:9c:c0:f6:46:08:99:57:0a:
                    dd:e9:d6:9d:3d:76:64:a5:05:33:36:4c:40:b1:fa:
                    e2:47:67:2a:f9
                ASN1 OID: secp256k1
    Signature Algorithm: ecdsa-with-SHA1
        30:45:02:20:6c:f6:4a:a2:99:fe:ca:3e:3d:4a:01:4b:1d:31:
        48:00:90:80:6f:14:fb:44:e7:41:a7:ee:08:76:8b:0f:26:61:
        02:21:00:bd:74:55:bc:87:cc:95:6e:dd:d3:22:f8:21:03:f9:
        3c:cc:ca:18:34:27:d6:74:e8:b4:f0:ab:f2:4d:6d:ef:f9
-----BEGIN CERTIFICATE-----
MIIBzjCCAXUCAQEwCQYHKoZIzj0EATB5MQswCQYDVQQGEwJOTDEWMBQGA1UECBMN
Tm9vcmQtQnJhYmFudDESMBAGA1UEBxMJRWluZGhvdmVuMQ0wCwYDVQQKEwRUVS9l
MQwwCgYDVQQLEwNJU1QxITAfBgNVBAMTGFRlYW1BUkEgUm9vdCBDZXJ0aWZpY2F0
ZTAeFw0xNDEwMTIyMjE4MzhaFw0xNTEwMTIyMjE4MzhaMHIxCzAJBgNVBAYTAk5M
MRYwFAYDVQQIEw1Ob29yZC1CcmFiYW50MQ0wCwYDVQQKEwRUVS9lMQwwCgYDVQQL
EwNJU1QxLjAsBgNVBAMTJVRlYW1BUkEgQ2FyZCBJbnRlcm1lZGlhdGUgQ2VydGlm
aWNhdGUwVjAQBgcqhkjOPQIBBgUrgQQACgNCAARNy6bLcOVgBE6ST9JEKZ6JTiWP
CX/NluK8ZXokzAlP5h7l6UWcwPZGCJlXCt3p1p09dmSlBTM2TECx+uJHZyr5MAkG
ByqGSM49BAEDSAAwRQIgbPZKopn+yj49SgFLHTFIAJCAbxT7ROdBp+4IdosPJmEC
IQC9dFW8h8yVbt3TIvghA/k8zMoYNCfWdOi08KvyTW3v+Q==
-----END CERTIFICATE-----
