Certificate:
    Data:
        Version: 1 (0x0)
        Serial Number: 1 (0x1)
        Signature Algorithm: ecdsa-with-SHA1
        Issuer: C=NL, ST=Noord-Brabant, L=Eindhoven, O=TU/e, OU=IST, CN=TeamARA Root Certificate
        Validity
            Not Before: Oct 13 09:00:25 2014 GMT
            Not After : Oct 13 09:00:25 2015 GMT
        Subject: C=NL, ST=Noord-Brabant, O=TU/e, OU=IST, CN=TeamARA Card Intermediate Certificate
        Subject Public Key Info:
            Public Key Algorithm: id-ecPublicKey
            EC Public Key:
                pub: 
                    04:f7:d7:6f:97:8f:0b:61:83:de:da:ed:5f:44:2c:
                    d5:42:e8:79:a6:73:59:ff:e9:d2:07:5b:fd:7a:e5:
                    a7:ac:f0:05:a2:bf:3d:7d:39:0c:b8:0d:a1:df:47:
                    55:c7:61:09
                ASN1 OID: secp192k1
    Signature Algorithm: ecdsa-with-SHA1
        30:34:02:18:74:c3:e8:5c:44:93:ac:ce:2b:17:bf:f1:5f:57:
        6b:89:53:ad:9b:97:14:3e:d6:55:02:18:06:1b:ca:10:2e:7e:
        78:42:4a:2a:42:e0:bd:30:e2:99:57:17:81:e3:82:38:b8:06
-----BEGIN CERTIFICATE-----
MIIBrTCCAWUCAQEwCQYHKoZIzj0EATB5MQswCQYDVQQGEwJOTDEWMBQGA1UECBMN
Tm9vcmQtQnJhYmFudDESMBAGA1UEBxMJRWluZGhvdmVuMQ0wCwYDVQQKEwRUVS9l
MQwwCgYDVQQLEwNJU1QxITAfBgNVBAMTGFRlYW1BUkEgUm9vdCBDZXJ0aWZpY2F0
ZTAeFw0xNDEwMTMwOTAwMjVaFw0xNTEwMTMwOTAwMjVaMHIxCzAJBgNVBAYTAk5M
MRYwFAYDVQQIEw1Ob29yZC1CcmFiYW50MQ0wCwYDVQQKEwRUVS9lMQwwCgYDVQQL
EwNJU1QxLjAsBgNVBAMTJVRlYW1BUkEgQ2FyZCBJbnRlcm1lZGlhdGUgQ2VydGlm
aWNhdGUwRjAQBgcqhkjOPQIBBgUrgQQAHwMyAAT312+Xjwthg97a7V9ELNVC6Hmm
c1n/6dIHW/165aes8AWivz19OQy4DaHfR1XHYQkwCQYHKoZIzj0EAQM3ADA0Ahh0
w+hcRJOszisXv/FfV2uJU62blxQ+1lUCGAYbyhAufnhCSipC4L0w4plXF4Hjgji4
Bg==
-----END CERTIFICATE-----
