Certificate:
    Data:
        Version: 1 (0x0)
        Serial Number: 1 (0x1)
        Signature Algorithm: ecdsa-with-SHA1
        Issuer: C=NL, ST=Noord-Brabant, O=TU/e, OU=IST, CN=TeamARA Card Intermediate Certificate
        Validity
            Not Before: Oct 12 22:18:50 2014 GMT
            Not After : Oct 12 22:18:50 2015 GMT
        Subject: C=NL, ST=Noord-Brabant, O=TU/e, OU=IST
        Subject Public Key Info:
            Public Key Algorithm: id-ecPublicKey
            EC Public Key:
                pub: 
                    04:83:ad:1a:27:b5:61:40:bb:53:69:97:a0:6d:19:
                    aa:1f:f8:e6:9c:84:43:95:b3:95:a3:51:d1:db:9b:
                    35:cf:f2:20:03:d0:03:86:1a:f2:c8:cb:89:9e:99:
                    bb:b8:42:f5:f9:9b:e2:89:12:ba:d9:54:f4:cd:de:
                    96:90:f4:f4:d9
                ASN1 OID: secp256k1
    Signature Algorithm: ecdsa-with-SHA1
        30:45:02:21:00:9f:6f:cf:10:f7:6b:ac:f6:34:3a:d1:3c:31:
        3a:7d:29:fd:51:40:71:91:f0:e2:5b:a3:a3:00:b2:74:11:3c:
        3c:02:20:1d:8c:c1:65:fd:ee:03:c5:41:69:72:16:23:58:e4:
        21:3e:87:ba:b5:a1:f2:9b:9a:22:e0:6b:52:46:7e:81:6c
-----BEGIN CERTIFICATE-----
MIIBlzCCAT4CAQEwCQYHKoZIzj0EATByMQswCQYDVQQGEwJOTDEWMBQGA1UECBMN
Tm9vcmQtQnJhYmFudDENMAsGA1UEChMEVFUvZTEMMAoGA1UECxMDSVNUMS4wLAYD
VQQDEyVUZWFtQVJBIENhcmQgSW50ZXJtZWRpYXRlIENlcnRpZmljYXRlMB4XDTE0
MTAxMjIyMTg1MFoXDTE1MTAxMjIyMTg1MFowQjELMAkGA1UEBhMCTkwxFjAUBgNV
BAgTDU5vb3JkLUJyYWJhbnQxDTALBgNVBAoTBFRVL2UxDDAKBgNVBAsTA0lTVDBW
MBAGByqGSM49AgEGBSuBBAAKA0IABIOtGie1YUC7U2mXoG0Zqh/45pyEQ5WzlaNR
0dubNc/yIAPQA4Ya8sjLiZ6Zu7hC9fmb4okSutlU9M3elpD09NkwCQYHKoZIzj0E
AQNIADBFAiEAn2/PEPdrrPY0OtE8MTp9Kf1RQHGR8OJbo6MAsnQRPDwCIB2MwWX9
7gPFQWlyFiNY5CE+h7q1ofKbmiLga1JGfoFs
-----END CERTIFICATE-----
