Certificate:
    Data:
        Version: 1 (0x0)
        Serial Number: 1 (0x1)
        Signature Algorithm: ecdsa-with-SHA1
        Issuer: C=NL, ST=Noord-Brabant, O=TU/e, OU=IST, CN=TeamARA Pump Terminal Intermediate Certificate
        Validity
            Not Before: Oct 12 22:19:00 2014 GMT
            Not After : Oct 12 22:19:00 2015 GMT
        Subject: C=NL, ST=Noord-Brabant, O=TU/e, OU=IST
        Subject Public Key Info:
            Public Key Algorithm: id-ecPublicKey
            EC Public Key:
                pub: 
                    04:e4:15:a7:4f:55:05:7e:bd:ee:a0:b2:4b:d3:9f:
                    8c:82:50:94:38:02:51:8a:af:76:67:56:f9:02:6d:
                    ec:7a:e2:d2:9d:fc:e5:58:5e:68:97:0f:c6:35:34:
                    28:15:d0:2f:2a:26:ae:0f:91:ff:61:29:a2:a4:db:
                    45:e5:ea:47:ec
                ASN1 OID: secp256k1
    Signature Algorithm: ecdsa-with-SHA1
        30:45:02:20:4b:5d:fb:9b:b9:c1:55:cd:f3:43:fc:b7:68:41:
        ab:7e:c5:a8:f0:f2:19:2e:9d:58:d9:64:83:77:38:87:1f:f5:
        02:21:00:81:52:9d:76:ec:0c:d2:d3:1f:70:57:5f:4a:e2:13:
        d6:33:ce:e7:6c:8e:db:83:78:8f:a5:0f:54:63:98:2e:d4
-----BEGIN CERTIFICATE-----
MIIBoDCCAUcCAQEwCQYHKoZIzj0EATB7MQswCQYDVQQGEwJOTDEWMBQGA1UECBMN
Tm9vcmQtQnJhYmFudDENMAsGA1UEChMEVFUvZTEMMAoGA1UECxMDSVNUMTcwNQYD
VQQDEy5UZWFtQVJBIFB1bXAgVGVybWluYWwgSW50ZXJtZWRpYXRlIENlcnRpZmlj
YXRlMB4XDTE0MTAxMjIyMTkwMFoXDTE1MTAxMjIyMTkwMFowQjELMAkGA1UEBhMC
TkwxFjAUBgNVBAgTDU5vb3JkLUJyYWJhbnQxDTALBgNVBAoTBFRVL2UxDDAKBgNV
BAsTA0lTVDBWMBAGByqGSM49AgEGBSuBBAAKA0IABOQVp09VBX697qCyS9OfjIJQ
lDgCUYqvdmdW+QJt7Hri0p385VheaJcPxjU0KBXQLyomrg+R/2EpoqTbReXqR+ww
CQYHKoZIzj0EAQNIADBFAiBLXfubucFVzfND/LdoQat+xajw8hkunVjZZIN3OIcf
9QIhAIFSnXbsDNLTH3BXX0riE9YzzudsjtuDeI+lD1RjmC7U
-----END CERTIFICATE-----
