Certificate:
    Data:
        Version: 1 (0x0)
        Serial Number: 1 (0x1)
    Signature Algorithm: ecdsa-with-SHA1
        Issuer: C=NL, ST=Noord-Brabant, O=TU/e, OU=IST, CN=TeamARA Card Intermediate Certificate
        Validity
            Not Before: Nov 25 12:52:39 2014 GMT
            Not After : Nov 25 12:52:39 2015 GMT
        Subject: C=NL, ST=Noord-Brabant, O=TU/e, OU=IST
        Subject Public Key Info:
            Public Key Algorithm: id-ecPublicKey
                Public-Key: (193 bit)
                pub: 
                    04:01:5b:41:1c:20:6d:ff:82:17:c6:39:5e:49:e6:
                    14:2e:86:11:01:b3:4f:e2:87:47:cd:00:a5:46:1f:
                    ae:4f:96:d8:43:11:ef:7c:41:82:10:13:6f:c5:88:
                    28:7d:b8:73:69:08
                ASN1 OID: sect193r1
    Signature Algorithm: ecdsa-with-SHA1
         30:35:02:19:00:d0:e2:c6:25:3e:f9:8f:64:22:23:20:f8:eb:
         eb:c3:79:69:01:0f:06:25:fa:91:c6:02:18:75:e7:22:b0:4c:
         a9:d3:54:90:28:5b:12:9c:e9:2d:86:c2:66:40:9c:bd:eb:71:
         53
-----BEGIN CERTIFICATE-----
MIIBeTCCATACAQEwCQYHKoZIzj0EATByMQswCQYDVQQGEwJOTDEWMBQGA1UECAwN
Tm9vcmQtQnJhYmFudDENMAsGA1UECgwEVFUvZTEMMAoGA1UECwwDSVNUMS4wLAYD
VQQDDCVUZWFtQVJBIENhcmQgSW50ZXJtZWRpYXRlIENlcnRpZmljYXRlMB4XDTE0
MTEyNTEyNTIzOVoXDTE1MTEyNTEyNTIzOVowQjELMAkGA1UEBhMCTkwxFjAUBgNV
BAgMDU5vb3JkLUJyYWJhbnQxDTALBgNVBAoMBFRVL2UxDDAKBgNVBAsMA0lTVDBI
MBAGByqGSM49AgEGBSuBBAAYAzQABAFbQRwgbf+CF8Y5XknmFC6GEQGzT+KHR80A
pUYfrk+W2EMR73xBghATb8WIKH24c2kIMAkGByqGSM49BAEDOAAwNQIZANDixiU+
+Y9kIiMg+Ovrw3lpAQ8GJfqRxgIYdecisEyp01SQKFsSnOkthsJmQJy963FT
-----END CERTIFICATE-----
