Certificate:
    Data:
        Version: 1 (0x0)
        Serial Number: 1 (0x1)
        Signature Algorithm: ecdsa-with-SHA1
        Issuer: C=NL, ST=Noord-Brabant, O=TU/e, OU=IST, CN=TeamARA Card Intermediate Certificate
        Validity
            Not Before: Oct 13 09:00:36 2014 GMT
            Not After : Oct 13 09:00:36 2015 GMT
        Subject: C=NL, ST=Noord-Brabant, O=TU/e, OU=IST
        Subject Public Key Info:
            Public Key Algorithm: id-ecPublicKey
            EC Public Key:
                pub: 
                    04:0b:14:5b:55:7a:d7:a3:ca:56:d3:76:63:d1:a1:
                    4f:8d:39:59:b3:f5:83:4b:e2:70:a9:87:7f:11:6b:
                    57:9b:35:48:98:d4:ef:0f:7a:bc:81:9c:18:3d:fa:
                    40:fe:13:aa
                ASN1 OID: secp192k1
    Signature Algorithm: ecdsa-with-SHA1
        30:34:02:18:1a:4a:db:85:99:e2:19:38:ff:d4:27:c6:22:10:
        85:ac:d6:12:f9:f2:61:4d:85:b2:02:18:17:e8:f9:cd:be:9b:
        0c:1a:8b:de:80:d0:cc:ec:c0:5e:8d:a3:b7:7f:11:95:29:89
-----BEGIN CERTIFICATE-----
MIIBdjCCAS4CAQEwCQYHKoZIzj0EATByMQswCQYDVQQGEwJOTDEWMBQGA1UECBMN
Tm9vcmQtQnJhYmFudDENMAsGA1UEChMEVFUvZTEMMAoGA1UECxMDSVNUMS4wLAYD
VQQDEyVUZWFtQVJBIENhcmQgSW50ZXJtZWRpYXRlIENlcnRpZmljYXRlMB4XDTE0
MTAxMzA5MDAzNloXDTE1MTAxMzA5MDAzNlowQjELMAkGA1UEBhMCTkwxFjAUBgNV
BAgTDU5vb3JkLUJyYWJhbnQxDTALBgNVBAoTBFRVL2UxDDAKBgNVBAsTA0lTVDBG
MBAGByqGSM49AgEGBSuBBAAfAzIABAsUW1V616PKVtN2Y9GhT405WbP1g0vicKmH
fxFrV5s1SJjU7w96vIGcGD36QP4TqjAJBgcqhkjOPQQBAzcAMDQCGBpK24WZ4hk4
/9QnxiIQhazWEvnyYU2FsgIYF+j5zb6bDBqL3oDQzOzAXo2jt38RlSmJ
-----END CERTIFICATE-----
