Certificate:
    Data:
        Version: 1 (0x0)
        Serial Number: 3 (0x3)
    Signature Algorithm: ecdsa-with-SHA1
        Issuer: C=NL, ST=Noord-Brabant, L=Eindhoven, O=TU/e, OU=IST, CN=TeamARA Root Certificate
        Validity
            Not Before: Nov 25 12:48:58 2014 GMT
            Not After : Nov 25 12:48:58 2015 GMT
        Subject: C=NL, ST=Noord-Brabant, O=TU/e, OU=IST, CN=TeamARA Charging Terminal Intermediate Certificate
        Subject Public Key Info:
            Public Key Algorithm: id-ecPublicKey
                Public-Key: (193 bit)
                pub: 
                    04:00:bc:d8:f4:74:d1:8a:d4:ec:45:df:75:75:c5:
                    97:64:a1:e4:d8:04:a2:3d:ec:69:1b:01:63:e1:ff:
                    19:31:fa:dd:e0:f7:5e:ac:88:d7:71:9c:05:07:f2:
                    01:94:44:76:c3:69
                ASN1 OID: sect193r1
    Signature Algorithm: ecdsa-with-SHA1
         30:35:02:19:00:88:86:2f:3c:a2:93:ad:13:6b:30:3c:e0:62:
         23:a0:40:43:1e:c0:aa:91:91:12:dd:02:18:1b:73:04:0a:7b:
         5a:6a:c9:dd:0e:2d:04:e0:7a:d5:97:69:3d:d0:2b:8b:90:f4:
         6c
-----BEGIN CERTIFICATE-----
MIIBvTCCAXQCAQMwCQYHKoZIzj0EATB5MQswCQYDVQQGEwJOTDEWMBQGA1UECAwN
Tm9vcmQtQnJhYmFudDESMBAGA1UEBwwJRWluZGhvdmVuMQ0wCwYDVQQKDARUVS9l
MQwwCgYDVQQLDANJU1QxITAfBgNVBAMMGFRlYW1BUkEgUm9vdCBDZXJ0aWZpY2F0
ZTAeFw0xNDExMjUxMjQ4NThaFw0xNTExMjUxMjQ4NThaMH8xCzAJBgNVBAYTAk5M
MRYwFAYDVQQIDA1Ob29yZC1CcmFiYW50MQ0wCwYDVQQKDARUVS9lMQwwCgYDVQQL
DANJU1QxOzA5BgNVBAMMMlRlYW1BUkEgQ2hhcmdpbmcgVGVybWluYWwgSW50ZXJt
ZWRpYXRlIENlcnRpZmljYXRlMEgwEAYHKoZIzj0CAQYFK4EEABgDNAAEALzY9HTR
itTsRd91dcWXZKHk2ASiPexpGwFj4f8ZMfrd4PderIjXcZwFB/IBlER2w2kwCQYH
KoZIzj0EAQM4ADA1AhkAiIYvPKKTrRNrMDzgYiOgQEMewKqRkRLdAhgbcwQKe1pq
yd0OLQTgetWXaT3QK4uQ9Gw=
-----END CERTIFICATE-----
