Certificate:
    Data:
        Version: 1 (0x0)
        Serial Number: 3 (0x3)
        Signature Algorithm: ecdsa-with-SHA1
        Issuer: C=NL, ST=Noord-Brabant, L=Eindhoven, O=TU/e, OU=IST, CN=TeamARA Root Certificate
        Validity
            Not Before: Oct 13 09:00:27 2014 GMT
            Not After : Oct 13 09:00:27 2015 GMT
        Subject: C=NL, ST=Noord-Brabant, O=TU/e, OU=IST, CN=TeamARA Charging Terminal Intermediate Certificate
        Subject Public Key Info:
            Public Key Algorithm: id-ecPublicKey
            EC Public Key:
                pub: 
                    04:6c:86:79:4a:ae:6d:f0:92:55:62:3b:5b:55:e5:
                    48:af:fc:a2:d8:cb:31:ec:5f:63:52:9e:4e:d1:38:
                    c4:cc:03:76:ed:59:34:b8:cb:e1:b6:42:e8:80:e6:
                    50:10:a3:91
                ASN1 OID: secp192k1
    Signature Algorithm: ecdsa-with-SHA1
        30:36:02:19:00:ea:b0:ca:16:e2:8e:4c:7e:98:16:43:c9:8f:
        bc:d5:1a:c5:6c:20:5c:55:92:e0:16:02:19:00:a6:d9:37:a0:
        0a:3d:11:0d:6d:21:51:e5:1b:5e:e8:d3:3f:8f:b6:84:60:b3:
        bc:45
-----BEGIN CERTIFICATE-----
MIIBvDCCAXICAQMwCQYHKoZIzj0EATB5MQswCQYDVQQGEwJOTDEWMBQGA1UECBMN
Tm9vcmQtQnJhYmFudDESMBAGA1UEBxMJRWluZGhvdmVuMQ0wCwYDVQQKEwRUVS9l
MQwwCgYDVQQLEwNJU1QxITAfBgNVBAMTGFRlYW1BUkEgUm9vdCBDZXJ0aWZpY2F0
ZTAeFw0xNDEwMTMwOTAwMjdaFw0xNTEwMTMwOTAwMjdaMH8xCzAJBgNVBAYTAk5M
MRYwFAYDVQQIEw1Ob29yZC1CcmFiYW50MQ0wCwYDVQQKEwRUVS9lMQwwCgYDVQQL
EwNJU1QxOzA5BgNVBAMTMlRlYW1BUkEgQ2hhcmdpbmcgVGVybWluYWwgSW50ZXJt
ZWRpYXRlIENlcnRpZmljYXRlMEYwEAYHKoZIzj0CAQYFK4EEAB8DMgAEbIZ5Sq5t
8JJVYjtbVeVIr/yi2Msx7F9jUp5O0TjEzAN27Vk0uMvhtkLogOZQEKORMAkGByqG
SM49BAEDOQAwNgIZAOqwyhbijkx+mBZDyY+81RrFbCBcVZLgFgIZAKbZN6AKPREN
bSFR5Rte6NM/j7aEYLO8RQ==
-----END CERTIFICATE-----
