Certificate:
    Data:
        Version: 1 (0x0)
        Serial Number: 3 (0x3)
    Signature Algorithm: ecdsa-with-SHA256
        Issuer: C=NL, ST=Noord-Brabant, L=Eindhoven, O=TU/e, OU=IST, CN=TeamARA Root Certificate
        Validity
            Not Before: Sep 17 12:29:25 2014 GMT
            Not After : Sep 17 12:29:25 2015 GMT
        Subject: C=NL, ST=Noord-Brabant, O=TU/e, OU=IST, CN=TeamARA Charging Terminal Intermediate Certificate
        Subject Public Key Info:
            Public Key Algorithm: id-ecPublicKey
                Public-Key: (112 bit)
                pub: 
                    04:40:d0:8c:f6:51:b3:86:62:17:6d:cc:20:5b:e4:
                    0f:ec:b4:b4:7b:79:ce:c5:6f:01:62:07:89:e7
                ASN1 OID: secp112r1
    Signature Algorithm: ecdsa-with-SHA256
         30:21:02:0e:34:be:80:ef:f3:5d:5a:9d:a8:7e:a4:9b:f4:e8:
         02:0f:00:a4:22:04:fd:aa:c6:61:df:a9:28:9d:80:dc:a5
-----BEGIN CERTIFICATE-----
MIIBlTCCAV8CAQMwCgYIKoZIzj0EAwIweTELMAkGA1UEBhMCTkwxFjAUBgNVBAgM
DU5vb3JkLUJyYWJhbnQxEjAQBgNVBAcMCUVpbmRob3ZlbjENMAsGA1UECgwEVFUv
ZTEMMAoGA1UECwwDSVNUMSEwHwYDVQQDDBhUZWFtQVJBIFJvb3QgQ2VydGlmaWNh
dGUwHhcNMTQwOTE3MTIyOTI1WhcNMTUwOTE3MTIyOTI1WjB/MQswCQYDVQQGEwJO
TDEWMBQGA1UECAwNTm9vcmQtQnJhYmFudDENMAsGA1UECgwEVFUvZTEMMAoGA1UE
CwwDSVNUMTswOQYDVQQDDDJUZWFtQVJBIENoYXJnaW5nIFRlcm1pbmFsIEludGVy
bWVkaWF0ZSBDZXJ0aWZpY2F0ZTAyMBAGByqGSM49AgEGBSuBBAAGAx4ABEDQjPZR
s4ZiF23MIFvkD+y0tHt5zsVvAWIHiecwCgYIKoZIzj0EAwIDJAAwIQIONL6A7/Nd
Wp2ofqSb9OgCDwCkIgT9qsZh36konYDcpQ==
-----END CERTIFICATE-----
