Certificate:
    Data:
        Version: 1 (0x0)
        Serial Number: 3 (0x3)
    Signature Algorithm: ecdsa-with-SHA256
        Issuer: C=NL, ST=Noord-Brabant, L=Eindhoven, O=TU/e, OU=IST, CN=TeamARA Root Certificate
        Validity
            Not Before: Sep 17 13:53:01 2014 GMT
            Not After : Sep 17 13:53:01 2015 GMT
        Subject: C=NL, ST=Noord-Brabant, O=TU/e, OU=IST, CN=TeamARA Charging Terminal Intermediate Certificate
        Subject Public Key Info:
            Public Key Algorithm: id-ecPublicKey
                Public-Key: (112 bit)
                pub: 
                    04:46:59:79:e2:70:25:6c:36:c3:c8:55:b2:21:a6:
                    3b:e1:62:33:21:79:e1:59:3e:2f:20:75:13:07
                ASN1 OID: secp112r1
    Signature Algorithm: ecdsa-with-SHA256
         30:20:02:0e:68:ac:6d:ec:6d:3b:0a:f5:ff:87:47:d7:11:25:
         02:0e:40:6d:85:33:a4:e3:64:81:06:39:8a:f2:cc:36
-----BEGIN CERTIFICATE-----
MIIBlDCCAV8CAQMwCgYIKoZIzj0EAwIweTELMAkGA1UEBhMCTkwxFjAUBgNVBAgM
DU5vb3JkLUJyYWJhbnQxEjAQBgNVBAcMCUVpbmRob3ZlbjENMAsGA1UECgwEVFUv
ZTEMMAoGA1UECwwDSVNUMSEwHwYDVQQDDBhUZWFtQVJBIFJvb3QgQ2VydGlmaWNh
dGUwHhcNMTQwOTE3MTM1MzAxWhcNMTUwOTE3MTM1MzAxWjB/MQswCQYDVQQGEwJO
TDEWMBQGA1UECAwNTm9vcmQtQnJhYmFudDENMAsGA1UECgwEVFUvZTEMMAoGA1UE
CwwDSVNUMTswOQYDVQQDDDJUZWFtQVJBIENoYXJnaW5nIFRlcm1pbmFsIEludGVy
bWVkaWF0ZSBDZXJ0aWZpY2F0ZTAyMBAGByqGSM49AgEGBSuBBAAGAx4ABEZZeeJw
JWw2w8hVsiGmO+FiMyF54Vk+LyB1EwcwCgYIKoZIzj0EAwIDIwAwIAIOaKxt7G07
CvX/h0fXESUCDkBthTOk42SBBjmK8sw2
-----END CERTIFICATE-----
