Certificate:
    Data:
        Version: 1 (0x0)
        Serial Number: 2 (0x2)
        Signature Algorithm: ecdsa-with-SHA1
        Issuer: C=NL, ST=Noord-Brabant, L=Eindhoven, O=TU/e, OU=IST, CN=TeamARA Root Certificate
        Validity
            Not Before: Oct 13 09:00:26 2014 GMT
            Not After : Oct 13 09:00:26 2015 GMT
        Subject: C=NL, ST=Noord-Brabant, O=TU/e, OU=IST, CN=TeamARA Pump Terminal Intermediate Certificate
        Subject Public Key Info:
            Public Key Algorithm: id-ecPublicKey
            EC Public Key:
                pub: 
                    04:8f:4c:7e:e8:97:10:25:3e:64:b6:a7:de:d1:ba:
                    50:a6:d0:b2:ac:0d:1c:95:2e:0a:59:de:03:c3:3a:
                    d4:e9:69:46:73:c0:dc:65:db:66:b6:df:c8:33:65:
                    19:7a:2b:04
                ASN1 OID: secp192k1
    Signature Algorithm: ecdsa-with-SHA1
        30:35:02:18:1d:ba:12:27:ad:25:f2:43:4b:55:6e:31:38:64:
        40:b9:20:93:14:2f:a8:57:b1:ce:02:19:00:d4:c3:70:35:ac:
        4c:ac:a2:c1:0b:7a:2c:5c:74:ac:14:af:15:03:7c:bc:49:68:
        c8
-----BEGIN CERTIFICATE-----
MIIBtzCCAW4CAQIwCQYHKoZIzj0EATB5MQswCQYDVQQGEwJOTDEWMBQGA1UECBMN
Tm9vcmQtQnJhYmFudDESMBAGA1UEBxMJRWluZGhvdmVuMQ0wCwYDVQQKEwRUVS9l
MQwwCgYDVQQLEwNJU1QxITAfBgNVBAMTGFRlYW1BUkEgUm9vdCBDZXJ0aWZpY2F0
ZTAeFw0xNDEwMTMwOTAwMjZaFw0xNTEwMTMwOTAwMjZaMHsxCzAJBgNVBAYTAk5M
MRYwFAYDVQQIEw1Ob29yZC1CcmFiYW50MQ0wCwYDVQQKEwRUVS9lMQwwCgYDVQQL
EwNJU1QxNzA1BgNVBAMTLlRlYW1BUkEgUHVtcCBUZXJtaW5hbCBJbnRlcm1lZGlh
dGUgQ2VydGlmaWNhdGUwRjAQBgcqhkjOPQIBBgUrgQQAHwMyAASPTH7olxAlPmS2
p97RulCm0LKsDRyVLgpZ3gPDOtTpaUZzwNxl22a238gzZRl6KwQwCQYHKoZIzj0E
AQM4ADA1AhgduhInrSXyQ0tVbjE4ZEC5IJMUL6hXsc4CGQDUw3A1rEysosELeixc
dKwUrxUDfLxJaMg=
-----END CERTIFICATE-----
