Certificate:
    Data:
        Version: 1 (0x0)
        Serial Number: 2 (0x2)
    Signature Algorithm: ecdsa-with-SHA256
        Issuer: C=NL, ST=Noord-Brabant, L=Eindhoven, O=TU/e, OU=IST, CN=TeamARA Root Certificate
        Validity
            Not Before: Sep 17 13:53:00 2014 GMT
            Not After : Sep 17 13:53:00 2015 GMT
        Subject: C=NL, ST=Noord-Brabant, O=TU/e, OU=IST, CN=TeamARA Pump Terminal Intermediate Certificate
        Subject Public Key Info:
            Public Key Algorithm: id-ecPublicKey
                Public-Key: (112 bit)
                pub: 
                    04:1b:aa:94:82:ea:32:4f:21:f4:3a:fc:ce:3c:62:
                    0b:68:2e:98:93:e8:92:65:da:26:0a:5d:c0:4d
                ASN1 OID: secp112r1
    Signature Algorithm: ecdsa-with-SHA256
         30:21:02:0f:00:9e:b8:e2:dc:1e:9f:88:9c:3a:57:71:cf:7b:
         06:02:0e:03:dd:1b:25:74:60:bd:0c:ee:84:ec:8a:9b:db
-----BEGIN CERTIFICATE-----
MIIBkTCCAVsCAQIwCgYIKoZIzj0EAwIweTELMAkGA1UEBhMCTkwxFjAUBgNVBAgM
DU5vb3JkLUJyYWJhbnQxEjAQBgNVBAcMCUVpbmRob3ZlbjENMAsGA1UECgwEVFUv
ZTEMMAoGA1UECwwDSVNUMSEwHwYDVQQDDBhUZWFtQVJBIFJvb3QgQ2VydGlmaWNh
dGUwHhcNMTQwOTE3MTM1MzAwWhcNMTUwOTE3MTM1MzAwWjB7MQswCQYDVQQGEwJO
TDEWMBQGA1UECAwNTm9vcmQtQnJhYmFudDENMAsGA1UECgwEVFUvZTEMMAoGA1UE
CwwDSVNUMTcwNQYDVQQDDC5UZWFtQVJBIFB1bXAgVGVybWluYWwgSW50ZXJtZWRp
YXRlIENlcnRpZmljYXRlMDIwEAYHKoZIzj0CAQYFK4EEAAYDHgAEG6qUguoyTyH0
OvzOPGILaC6Yk+iSZdomCl3ATTAKBggqhkjOPQQDAgMkADAhAg8Anrji3B6fiJw6
V3HPewYCDgPdGyV0YL0M7oTsipvb
-----END CERTIFICATE-----
