Certificate:
    Data:
        Version: 1 (0x0)
        Serial Number: 2 (0x2)
    Signature Algorithm: ecdsa-with-SHA256
        Issuer: C=NL, ST=Noord-Brabant, L=Eindhoven, O=TU/e, OU=IST, CN=TeamARA Root Certificate
        Validity
            Not Before: Sep 17 12:29:24 2014 GMT
            Not After : Sep 17 12:29:24 2015 GMT
        Subject: C=NL, ST=Noord-Brabant, O=TU/e, OU=IST, CN=TeamARA Pump Terminal Intermediate Certificate
        Subject Public Key Info:
            Public Key Algorithm: id-ecPublicKey
                Public-Key: (112 bit)
                pub: 
                    04:1d:bd:0a:cf:43:e8:a4:20:d1:41:54:37:e0:26:
                    c7:06:c1:5d:81:7b:58:54:1a:17:0e:33:f5:5a
                ASN1 OID: secp112r1
    Signature Algorithm: ecdsa-with-SHA256
         30:21:02:0f:00:ae:6d:37:a3:fe:9d:cb:4e:ca:3f:b1:3f:d9:
         3f:02:0e:68:83:6e:99:d0:86:77:56:62:2f:3e:95:ab:ee
-----BEGIN CERTIFICATE-----
MIIBkTCCAVsCAQIwCgYIKoZIzj0EAwIweTELMAkGA1UEBhMCTkwxFjAUBgNVBAgM
DU5vb3JkLUJyYWJhbnQxEjAQBgNVBAcMCUVpbmRob3ZlbjENMAsGA1UECgwEVFUv
ZTEMMAoGA1UECwwDSVNUMSEwHwYDVQQDDBhUZWFtQVJBIFJvb3QgQ2VydGlmaWNh
dGUwHhcNMTQwOTE3MTIyOTI0WhcNMTUwOTE3MTIyOTI0WjB7MQswCQYDVQQGEwJO
TDEWMBQGA1UECAwNTm9vcmQtQnJhYmFudDENMAsGA1UECgwEVFUvZTEMMAoGA1UE
CwwDSVNUMTcwNQYDVQQDDC5UZWFtQVJBIFB1bXAgVGVybWluYWwgSW50ZXJtZWRp
YXRlIENlcnRpZmljYXRlMDIwEAYHKoZIzj0CAQYFK4EEAAYDHgAEHb0Kz0PopCDR
QVQ34CbHBsFdgXtYVBoXDjP1WjAKBggqhkjOPQQDAgMkADAhAg8Arm03o/6dy07K
P7E/2T8CDmiDbpnQhndWYi8+lavu
-----END CERTIFICATE-----
