Certificate:
    Data:
        Version: 1 (0x0)
        Serial Number: 2 (0x2)
    Signature Algorithm: ecdsa-with-SHA1
        Issuer: C=NL, ST=Noord-Brabant, L=Eindhoven, O=TU/e, OU=IST, CN=TeamARA Root Certificate
        Validity
            Not Before: Nov 25 12:48:56 2014 GMT
            Not After : Nov 25 12:48:56 2015 GMT
        Subject: C=NL, ST=Noord-Brabant, O=TU/e, OU=IST, CN=TeamARA Pump Terminal Intermediate Certificate
        Subject Public Key Info:
            Public Key Algorithm: id-ecPublicKey
                Public-Key: (193 bit)
                pub: 
                    04:01:09:c5:3f:cd:96:1b:d9:ea:8c:01:cf:06:a6:
                    eb:34:b1:3a:a8:5b:78:b6:bc:33:3b:01:6a:a4:b3:
                    c8:81:79:ef:46:4c:71:2f:2c:fe:50:c8:86:8c:9d:
                    ee:3f:4f:05:bd:0a
                ASN1 OID: sect193r1
    Signature Algorithm: ecdsa-with-SHA1
         30:36:02:19:00:a7:fc:8e:d5:bb:90:72:ba:cf:e8:fb:ad:f0:
         21:d9:79:34:04:f1:3d:2b:22:2f:71:02:19:00:bd:04:fa:ba:
         ca:12:69:e2:da:81:2b:d6:fe:c3:7b:8e:69:86:7c:04:89:ba:
         ca:c1
-----BEGIN CERTIFICATE-----
MIIBujCCAXACAQIwCQYHKoZIzj0EATB5MQswCQYDVQQGEwJOTDEWMBQGA1UECAwN
Tm9vcmQtQnJhYmFudDESMBAGA1UEBwwJRWluZGhvdmVuMQ0wCwYDVQQKDARUVS9l
MQwwCgYDVQQLDANJU1QxITAfBgNVBAMMGFRlYW1BUkEgUm9vdCBDZXJ0aWZpY2F0
ZTAeFw0xNDExMjUxMjQ4NTZaFw0xNTExMjUxMjQ4NTZaMHsxCzAJBgNVBAYTAk5M
MRYwFAYDVQQIDA1Ob29yZC1CcmFiYW50MQ0wCwYDVQQKDARUVS9lMQwwCgYDVQQL
DANJU1QxNzA1BgNVBAMMLlRlYW1BUkEgUHVtcCBUZXJtaW5hbCBJbnRlcm1lZGlh
dGUgQ2VydGlmaWNhdGUwSDAQBgcqhkjOPQIBBgUrgQQAGAM0AAQBCcU/zZYb2eqM
Ac8Gpus0sTqoW3i2vDM7AWqks8iBee9GTHEvLP5QyIaMne4/TwW9CjAJBgcqhkjO
PQQBAzkAMDYCGQCn/I7Vu5Byus/o+63wIdl5NATxPSsiL3ECGQC9BPq6yhJp4tqB
K9b+w3uOaYZ8BIm6ysE=
-----END CERTIFICATE-----
