Certificate:
    Data:
        Version: 1 (0x0)
        Serial Number: 1 (0x1)
        Signature Algorithm: ecdsa-with-SHA1
        Issuer: C=NL, ST=Noord-Brabant, O=TU/e, OU=IST, CN=TeamARA Pump Terminal Intermediate Certificate
        Validity
            Not Before: Oct 13 09:00:48 2014 GMT
            Not After : Oct 13 09:00:48 2015 GMT
        Subject: C=NL, ST=Noord-Brabant, O=TU/e, OU=IST
        Subject Public Key Info:
            Public Key Algorithm: id-ecPublicKey
            EC Public Key:
                pub: 
                    04:33:5d:77:96:f4:e1:ab:c7:d4:3f:ec:41:08:39:
                    d8:f6:f3:f4:ed:7e:d8:87:85:0e:34:ac:ee:72:50:
                    1f:fe:9c:f9:35:82:e9:0f:3f:28:19:90:d7:e1:59:
                    49:9f:cf:72
                ASN1 OID: secp192k1
    Signature Algorithm: ecdsa-with-SHA1
        30:35:02:19:00:b0:64:64:3b:ad:0e:62:78:60:c4:7b:48:cd:
        ef:d1:13:67:64:cb:77:0d:93:6e:df:02:18:38:b3:2a:e6:08:
        66:8c:e3:e6:5b:64:58:5d:77:ed:ff:90:8d:fd:20:ed:fa:c8:
        21
-----BEGIN CERTIFICATE-----
MIIBgDCCATcCAQEwCQYHKoZIzj0EATB7MQswCQYDVQQGEwJOTDEWMBQGA1UECBMN
Tm9vcmQtQnJhYmFudDENMAsGA1UEChMEVFUvZTEMMAoGA1UECxMDSVNUMTcwNQYD
VQQDEy5UZWFtQVJBIFB1bXAgVGVybWluYWwgSW50ZXJtZWRpYXRlIENlcnRpZmlj
YXRlMB4XDTE0MTAxMzA5MDA0OFoXDTE1MTAxMzA5MDA0OFowQjELMAkGA1UEBhMC
TkwxFjAUBgNVBAgTDU5vb3JkLUJyYWJhbnQxDTALBgNVBAoTBFRVL2UxDDAKBgNV
BAsTA0lTVDBGMBAGByqGSM49AgEGBSuBBAAfAzIABDNdd5b04avH1D/sQQg52Pbz
9O1+2IeFDjSs7nJQH/6c+TWC6Q8/KBmQ1+FZSZ/PcjAJBgcqhkjOPQQBAzgAMDUC
GQCwZGQ7rQ5ieGDEe0jN79ETZ2TLdw2Tbt8CGDizKuYIZozj5ltkWF137f+Qjf0g
7frIIQ==
-----END CERTIFICATE-----
