Certificate:
    Data:
        Version: 1 (0x0)
        Serial Number: 1 (0x1)
        Signature Algorithm: ecdsa-with-SHA1
        Issuer: C=NL, ST=Noord-Brabant, O=TU/e, OU=IST, CN=TeamARA Charging Terminal Intermediate Certificate
        Validity
            Not Before: Oct 12 22:19:13 2014 GMT
            Not After : Oct 12 22:19:13 2015 GMT
        Subject: C=NL, ST=Noord-Brabant, O=TU/e, OU=IST
        Subject Public Key Info:
            Public Key Algorithm: id-ecPublicKey
            EC Public Key:
                pub: 
                    04:0d:0e:87:76:9c:36:63:ae:59:56:eb:fa:fd:9d:
                    26:d5:1f:44:75:74:f2:c7:22:e5:cc:06:70:4d:39:
                    7e:25:28:13:dc:0d:c0:cd:81:fc:06:5c:f4:e9:5a:
                    76:a3:48:fa:b3:ce:80:bf:e1:f3:38:9d:d0:71:f2:
                    d8:49:b7:43:e9
                ASN1 OID: secp256k1
    Signature Algorithm: ecdsa-with-SHA1
        30:45:02:20:14:cc:a5:b9:cd:48:1c:00:4f:ab:48:c7:4b:29:
        de:84:cd:71:1c:2c:1a:9e:0a:cf:d5:a3:e4:20:a4:59:d7:c3:
        02:21:00:e5:7b:9d:30:5b:c7:fb:30:bf:2e:18:ac:f6:0c:5a:
        77:b1:09:61:19:87:34:b6:a9:4a:ea:56:ef:24:dc:59:5d
-----BEGIN CERTIFICATE-----
MIIBpDCCAUsCAQEwCQYHKoZIzj0EATB/MQswCQYDVQQGEwJOTDEWMBQGA1UECBMN
Tm9vcmQtQnJhYmFudDENMAsGA1UEChMEVFUvZTEMMAoGA1UECxMDSVNUMTswOQYD
VQQDEzJUZWFtQVJBIENoYXJnaW5nIFRlcm1pbmFsIEludGVybWVkaWF0ZSBDZXJ0
aWZpY2F0ZTAeFw0xNDEwMTIyMjE5MTNaFw0xNTEwMTIyMjE5MTNaMEIxCzAJBgNV
BAYTAk5MMRYwFAYDVQQIEw1Ob29yZC1CcmFiYW50MQ0wCwYDVQQKEwRUVS9lMQww
CgYDVQQLEwNJU1QwVjAQBgcqhkjOPQIBBgUrgQQACgNCAAQNDod2nDZjrllW6/r9
nSbVH0R1dPLHIuXMBnBNOX4lKBPcDcDNgfwGXPTpWnajSPqzzoC/4fM4ndBx8thJ
t0PpMAkGByqGSM49BAEDSAAwRQIgFMyluc1IHABPq0jHSynehM1xHCwangrP1aPk
IKRZ18MCIQDle50wW8f7ML8uGKz2DFp3sQlhGYc0tqlK6lbvJNxZXQ==
-----END CERTIFICATE-----
