Certificate:
    Data:
        Version: 1 (0x0)
        Serial Number: 1 (0x1)
    Signature Algorithm: ecdsa-with-SHA1
        Issuer: C=NL, ST=Noord-Brabant, O=TU/e, OU=IST, CN=TeamARA Charging Terminal Intermediate Certificate
        Validity
            Not Before: Nov 25 12:53:33 2014 GMT
            Not After : Nov 25 12:53:33 2015 GMT
        Subject: C=NL, ST=Noord-Brabant, O=TU/e, OU=IST
        Subject Public Key Info:
            Public Key Algorithm: id-ecPublicKey
                Public-Key: (193 bit)
                pub: 
                    04:01:96:96:64:3a:14:da:e5:7c:15:83:6b:48:6f:
                    83:ac:4f:36:0a:47:9d:4b:9d:3e:85:01:d1:2d:f9:
                    13:3a:70:ee:9b:bb:58:65:c2:3d:29:9f:db:54:ac:
                    2f:11:52:63:f2:9a
                ASN1 OID: sect193r1
    Signature Algorithm: ecdsa-with-SHA1
         30:35:02:18:59:bb:93:81:eb:ee:ee:1d:37:36:bf:cd:47:a4:
         12:43:f4:da:18:f6:7e:8c:be:c3:02:19:00:bc:39:73:f5:2b:
         cd:c8:2b:60:38:aa:7c:87:11:cf:a4:7b:bc:59:b1:6a:7f:76:
         4a
-----BEGIN CERTIFICATE-----
MIIBhjCCAT0CAQEwCQYHKoZIzj0EATB/MQswCQYDVQQGEwJOTDEWMBQGA1UECAwN
Tm9vcmQtQnJhYmFudDENMAsGA1UECgwEVFUvZTEMMAoGA1UECwwDSVNUMTswOQYD
VQQDDDJUZWFtQVJBIENoYXJnaW5nIFRlcm1pbmFsIEludGVybWVkaWF0ZSBDZXJ0
aWZpY2F0ZTAeFw0xNDExMjUxMjUzMzNaFw0xNTExMjUxMjUzMzNaMEIxCzAJBgNV
BAYTAk5MMRYwFAYDVQQIDA1Ob29yZC1CcmFiYW50MQ0wCwYDVQQKDARUVS9lMQww
CgYDVQQLDANJU1QwSDAQBgcqhkjOPQIBBgUrgQQAGAM0AAQBlpZkOhTa5XwVg2tI
b4OsTzYKR51LnT6FAdEt+RM6cO6bu1hlwj0pn9tUrC8RUmPymjAJBgcqhkjOPQQB
AzgAMDUCGFm7k4Hr7u4dNza/zUekEkP02hj2foy+wwIZALw5c/UrzcgrYDiqfIcR
z6R7vFmxan92Sg==
-----END CERTIFICATE-----
