Certificate:
    Data:
        Version: 1 (0x0)
        Serial Number: 1 (0x1)
        Signature Algorithm: ecdsa-with-SHA1
        Issuer: C=NL, ST=Noord-Brabant, O=TU/e, OU=IST, CN=TeamARA Charging Terminal Intermediate Certificate
        Validity
            Not Before: Oct 13 09:00:58 2014 GMT
            Not After : Oct 13 09:00:58 2015 GMT
        Subject: C=NL, ST=Noord-Brabant, O=TU/e, OU=IST
        Subject Public Key Info:
            Public Key Algorithm: id-ecPublicKey
            EC Public Key:
                pub: 
                    04:50:d3:00:bd:ab:65:46:c8:3d:bc:c3:28:6b:bb:
                    1d:7a:89:f2:cd:38:84:06:59:75:13:d9:f5:b1:f7:
                    21:3e:d6:e6:fe:ad:dd:b5:50:a0:32:34:1c:da:4e:
                    f3:f6:8f:59
                ASN1 OID: secp192k1
    Signature Algorithm: ecdsa-with-SHA1
        30:36:02:19:00:dd:d3:f6:8b:ec:05:d0:cd:c8:c6:c7:67:5c:
        31:cb:fd:4a:09:30:0d:cd:46:41:54:02:19:00:ca:d6:b9:78:
        c9:55:aa:13:39:e4:10:38:0b:44:9f:39:bb:f8:62:22:ce:da:
        fa:31
-----BEGIN CERTIFICATE-----
MIIBhTCCATsCAQEwCQYHKoZIzj0EATB/MQswCQYDVQQGEwJOTDEWMBQGA1UECBMN
Tm9vcmQtQnJhYmFudDENMAsGA1UEChMEVFUvZTEMMAoGA1UECxMDSVNUMTswOQYD
VQQDEzJUZWFtQVJBIENoYXJnaW5nIFRlcm1pbmFsIEludGVybWVkaWF0ZSBDZXJ0
aWZpY2F0ZTAeFw0xNDEwMTMwOTAwNThaFw0xNTEwMTMwOTAwNThaMEIxCzAJBgNV
BAYTAk5MMRYwFAYDVQQIEw1Ob29yZC1CcmFiYW50MQ0wCwYDVQQKEwRUVS9lMQww
CgYDVQQLEwNJU1QwRjAQBgcqhkjOPQIBBgUrgQQAHwMyAARQ0wC9q2VGyD28wyhr
ux16ifLNOIQGWXUT2fWx9yE+1ub+rd21UKAyNBzaTvP2j1kwCQYHKoZIzj0EAQM5
ADA2AhkA3dP2i+wF0M3IxsdnXDHL/UoJMA3NRkFUAhkAyta5eMlVqhM55BA4C0Sf
Obv4YiLO2vox
-----END CERTIFICATE-----
